; Function Attrs: mustprogress nounwind uwtable
define internal fastcc void @_ZN12_GLOBAL__N_114ODRTypeVisitor19VisitAttributedTypeEPKN5clang14AttributedTypeE(ptr noundef nonnull readonly align 8 captures(none) dereferenceable(16) %0, ptr noundef readonly captures(none) %1) unnamed_addr #0 align 2 {
  %3 = load ptr, ptr %0, align 8
  %4 = getelementptr inbounds nuw i8, ptr %1, i64 16
  %5 = load i32, ptr %4, align 16
  %6 = tail call noundef i64 @_ZNK4llvm15SmallVectorBaseIjE4sizeEv(ptr noundef nonnull align 8 dereferenceable(144) %3) #14
  %7 = add i64 %6, 1
  %8 = tail call noundef i64 @_ZNK4llvm15SmallVectorBaseIjE8capacityEv(ptr noundef nonnull align 8 dereferenceable(144) %3) #14
  %.not.i.i.i.i = icmp ugt i64 %7, %8
  br i1 %.not.i.i.i.i, label %9, label %_ZN4llvm16FoldingSetNodeID10AddIntegerEi.exit

9:                                                ; preds = %2
  %10 = getelementptr inbounds nuw i8, ptr %3, i64 16
  tail call void @_ZN4llvm15SmallVectorBaseIjE8grow_podEPvmm(ptr noundef nonnull align 8 dereferenceable(144) %3, ptr noundef nonnull %10, i64 noundef %7, i64 noundef 4) #14
  br label %_ZN4llvm16FoldingSetNodeID10AddIntegerEi.exit

_ZN4llvm16FoldingSetNodeID10AddIntegerEi.exit:    ; preds = %2, %9
  %11 = lshr i32 %5, 19
  %12 = load ptr, ptr %3, align 8
  %13 = tail call noundef i64 @_ZNK4llvm15SmallVectorBaseIjE4sizeEv(ptr noundef nonnull align 8 dereferenceable(144) %3) #14
  %14 = getelementptr inbounds i32, ptr %12, i64 %13
  store i32 %11, ptr %14, align 1
  %15 = tail call noundef i64 @_ZNK4llvm15SmallVectorBaseIjE4sizeEv(ptr noundef nonnull align 8 dereferenceable(144) %3) #14
  %16 = add i64 %15, 1
  tail call void @_ZN4llvm15SmallVectorBaseIjE8set_sizeEm(ptr noundef nonnull align 8 dereferenceable(144) %3, i64 noundef %16) #14
  %17 = getelementptr inbounds nuw i8, ptr %1, i64 32
  %.sroa.0.0.copyload.i = load i64, ptr %17, align 16
  %18 = getelementptr inbounds nuw i8, ptr %0, i64 8
  %19 = load ptr, ptr %18, align 8
  tail call void @_ZN5clang7ODRHash11AddQualTypeENS_8QualTypeE(ptr noundef nonnull align 8 dereferenceable(320) %19, i64 %.sroa.0.0.copyload.i)
  ret void
}